target datalayout = "e-m:e-p270:32:32-p271:32:32-p272:64:64-i64:64-i128:128-f80:128-n8:16:32:64-S128"
target triple = "x86_64-pc-linux-gnu"

%class.LIR_Opr = type { i64 }
%class.LIRAccess = type { ptr, i64, %class.LIRAddressOpr, %class.LIRAddressOpr, i8, %class.LIR_Opr, ptr, ptr }
%class.LIRAddressOpr = type { ptr, %class.LIR_Opr }

; Function Attrs: mustprogress nounwind uwtable
define linkonce_odr hidden noundef zeroext i8 @_ZNK9LIRAccess4typeEv(ptr noundef nonnull align 8 dereferenceable(80) %0) #1 comdat align 2 {
  %2 = alloca ptr, align 8
  store ptr %0, ptr %2, align 8
  %3 = load ptr, ptr %2, align 8
  %4 = getelementptr inbounds %class.LIRAccess, ptr %3, i32 0, i32 4
  %5 = load i8, ptr %4, align 8
  ret i8 %5
}

; Function Attrs: mustprogress nounwind uwtable
define linkonce_odr hidden noundef i64 @_ZNK9LIRAccess10decoratorsEv(ptr noundef nonnull align 8 dereferenceable(80) %0) #1 comdat align 2 {
  %2 = alloca ptr, align 8
  store ptr %0, ptr %2, align 8
  %3 = load ptr, ptr %2, align 8
  %4 = getelementptr inbounds %class.LIRAccess, ptr %3, i32 0, i32 1
  %5 = load i64, ptr %4, align 8
  ret i64 %5
}

; Function Attrs: mustprogress nounwind uwtable
define internal noundef zeroext i1 @_ZL14barrier_neededR9LIRAccess(ptr noundef nonnull align 8 dereferenceable(80) %0) #1 {
  %2 = alloca ptr, align 8
  store ptr %0, ptr %2, align 8
  %3 = load ptr, ptr %2, align 8
  %4 = call noundef i64 @_ZNK9LIRAccess10decoratorsEv(ptr noundef nonnull align 8 dereferenceable(80) %3)
  %5 = load ptr, ptr %2, align 8
  %6 = call noundef zeroext i8 @_ZNK9LIRAccess4typeEv(ptr noundef nonnull align 8 dereferenceable(80) %5)
  %7 = call noundef zeroext i1 @_ZN11XBarrierSet14barrier_neededEm9BasicType(i64 noundef %4, i8 noundef zeroext %6)
  ret i1 %7
}

; Function Attrs: mustprogress nounwind uwtable
define hidden i64 @_ZN13XBarrierSetC115resolve_addressER9LIRAccessb(ptr noundef nonnull align 8 dereferenceable(24) %0, ptr noundef nonnull align 8 dereferenceable(80) %1, i1 noundef zeroext %2) unnamed_addr #1 align 2 {
  %4 = alloca %class.LIR_Opr, align 8
  %5 = alloca ptr, align 8
  %6 = alloca ptr, align 8
  %7 = alloca i8, align 1
  %8 = alloca i8, align 1
  store ptr %0, ptr %5, align 8
  store ptr %1, ptr %6, align 8
  %9 = zext i1 %2 to i8
  store i8 %9, ptr %7, align 1
  %10 = load ptr, ptr %5, align 8
  %11 = load ptr, ptr %6, align 8
  %12 = call noundef zeroext i1 @_ZL14barrier_neededR9LIRAccess(ptr noundef nonnull align 8 dereferenceable(80) %11)
  br i1 %12, label %13, label %18

13:                                               ; preds = %3
  %14 = load ptr, ptr %6, align 8
  %15 = call noundef i64 @_ZNK9LIRAccess10decoratorsEv(ptr noundef nonnull align 8 dereferenceable(80) %14)
  %16 = and i64 %15, 2147483648
  %17 = icmp ne i64 %16, 0
  br label %18

18:                                               ; preds = %13, %3
  %19 = phi i1 [ false, %3 ], [ %17, %13 ]
  %20 = zext i1 %19 to i8
  store i8 %20, ptr %8, align 1
  %21 = load ptr, ptr %6, align 8
  %22 = load i8, ptr %7, align 1
  %23 = trunc i8 %22 to i1
  br i1 %23, label %27, label %24

24:                                               ; preds = %18
  %25 = load i8, ptr %8, align 1
  %26 = trunc i8 %25 to i1
  br label %27

27:                                               ; preds = %24, %18
  %28 = phi i1 [ true, %18 ], [ %26, %24 ]
  %29 = call i64 @_ZN12BarrierSetC115resolve_addressER9LIRAccessb(ptr noundef nonnull align 8 dereferenceable(8) %10, ptr noundef nonnull align 8 dereferenceable(80) %21, i1 noundef zeroext %28)
  %30 = getelementptr inbounds %class.LIR_Opr, ptr %4, i32 0, i32 0
  store i64 %29, ptr %30, align 8
  %31 = getelementptr inbounds %class.LIR_Opr, ptr %4, i32 0, i32 0
  %32 = load i64, ptr %31, align 8
  ret i64 %32
}