; Function Attrs: mustprogress nounwind uwtable
define hidden i64 @_ZN13XBarrierSetC115resolve_addressER9LIRAccessb(ptr noundef nonnull align 8 dereferenceable(24) %0, ptr noundef nonnull align 8 dereferenceable(80) %1, i1 noundef zeroext %2) unnamed_addr #0 align 2 {
  %4 = getelementptr inbounds i8, ptr %1, i64 8
  %.val = load i64, ptr %4, align 8
  %5 = getelementptr inbounds i8, ptr %1, i64 48
  %.val5 = load i8, ptr %5, align 8
  %6 = tail call noundef zeroext i1 @_ZN11XBarrierSet14barrier_neededEm9BasicType(i64 noundef %.val, i8 noundef zeroext %.val5) #9
  %7 = load i64, ptr %4, align 8
  %8 = and i64 %7, 2147483648
  %9 = icmp ne i64 %8, 0
  %10 = select i1 %6, i1 %9, i1 false
  %11 = or i1 %10, %2
  %12 = tail call i64 @_ZN12BarrierSetC115resolve_addressER9LIRAccessb(ptr noundef nonnull align 8 dereferenceable(8) %0, ptr noundef nonnull align 8 dereferenceable(80) %1, i1 noundef zeroext %11) #9
  ret i64 %12
}